target datalayout = "e-m:e-p270:32:32-p271:32:32-p272:64:64-i64:64-i128:128-f80:128-n8:16:32:64-S128"
target triple = "x86_64-unknown-linux-gnu"

%"struct.bound_propagator::bound" = type { %class.mpq, double, i32, i32, %union.anon, ptr }
%class.mpq = type { %class.mpz, %class.mpz }
%class.mpz = type { i32, i8, ptr }
%union.anon = type { i32 }
%class.bound_propagator = type { ptr, ptr, %class.linear_equation_manager, %class.svector.4, %class.svector.0, %class.svector.0, %class.ptr_vector, %class.ptr_vector, %class.vector.7, %class.svector.8, i32, %class.svector.2, %class.svector.2, %class.svector.2, i32, i32, %class.mpq, %class.svector.10, %class.svector.2, i32, double, double, double, i32, i32, i32, %class.svector.12 }
%class.linear_equation_manager = type { ptr, ptr, %class.numeral_buffer, %class.numeral_buffer, %class.svector.0, %class.svector.2 }
%class.numeral_buffer = type { ptr, %class.svector }
%class.svector = type { %class.vector }
%class.vector = type { ptr }
%class.svector.4 = type { %class.vector.5 }
%class.vector.5 = type { ptr }
%class.svector.0 = type { %class.vector.1 }
%class.vector.1 = type { ptr }
%class.ptr_vector = type { %class.vector.6 }
%class.vector.6 = type { ptr }
%class.vector.7 = type { ptr }
%class.svector.8 = type { %class.vector.9 }
%class.vector.9 = type { ptr }
%class.svector.10 = type { %class.vector.11 }
%class.vector.11 = type { ptr }
%class.svector.2 = type { %class.vector.3 }
%class.vector.3 = type { ptr }
%class.svector.12 = type { %class.vector.13 }
%class.vector.13 = type { ptr }
%"class.bound_propagator::trail_info" = type { i32 }

; Function Attrs: mustprogress uwtable
define linkonce_odr hidden void @_ZN11mpz_managerILb0EE3delER3mpz(ptr noundef nonnull align 8 dereferenceable(600) %this, ptr noundef nonnull align 8 dereferenceable(16) %a) #4 comdat align 2 {
entry:
  %this.addr = alloca ptr, align 8
  %a.addr = alloca ptr, align 8
  store ptr %this, ptr %this.addr, align 8
  store ptr %a, ptr %a.addr, align 8
  %this1 = load ptr, ptr %this.addr, align 8
  %0 = load ptr, ptr %a.addr, align 8
  call void @_ZN11mpz_managerILb0EE3delEPS0_R3mpz(ptr noundef %this1, ptr noundef nonnull align 8 dereferenceable(16) %0)
  ret void
}

; Function Attrs: mustprogress uwtable
define linkonce_odr hidden void @_ZN11mpq_managerILb0EE3delER3mpz(ptr noundef nonnull align 8 dereferenceable(728) %this, ptr noundef nonnull align 8 dereferenceable(16) %a) #4 comdat align 2 {
entry:
  %this.addr = alloca ptr, align 8
  %a.addr = alloca ptr, align 8
  store ptr %this, ptr %this.addr, align 8
  store ptr %a, ptr %a.addr, align 8
  %this1 = load ptr, ptr %this.addr, align 8
  %0 = load ptr, ptr %a.addr, align 8
  call void @_ZN11mpz_managerILb0EE3delER3mpz(ptr noundef nonnull align 8 dereferenceable(600) %this1, ptr noundef nonnull align 8 dereferenceable(16) %0)
  ret void
}

; Function Attrs: mustprogress nounwind uwtable
define linkonce_odr hidden noundef nonnull align 4 dereferenceable(4) ptr @_ZN6vectorIN16bound_propagator10trail_infoELb0EjEixEj(ptr noundef nonnull align 8 dereferenceable(8) %this, i32 noundef %idx) #5 comdat align 2 {
entry:
  %this.addr = alloca ptr, align 8
  %idx.addr = alloca i32, align 4
  store ptr %this, ptr %this.addr, align 8
  store i32 %idx, ptr %idx.addr, align 4
  %this1 = load ptr, ptr %this.addr, align 8
  %m_data = getelementptr inbounds %class.vector.9, ptr %this1, i32 0, i32 0
  %0 = load ptr, ptr %m_data, align 8
  %1 = load i32, ptr %idx.addr, align 4
  %idxprom = zext i32 %1 to i64
  %arrayidx = getelementptr inbounds %"class.bound_propagator::trail_info", ptr %0, i64 %idxprom
  ret ptr %arrayidx
}

; Function Attrs: mustprogress uwtable
define linkonce_odr hidden void @_ZN11mpq_managerILb0EE3delER3mpq(ptr noundef nonnull align 8 dereferenceable(728) %this, ptr noundef nonnull align 8 dereferenceable(32) %a) #4 comdat align 2 {
entry:
  %this.addr = alloca ptr, align 8
  %a.addr = alloca ptr, align 8
  store ptr %this, ptr %this.addr, align 8
  store ptr %a, ptr %a.addr, align 8
  %this1 = load ptr, ptr %this.addr, align 8
  %0 = load ptr, ptr %a.addr, align 8
  %m_num = getelementptr inbounds %class.mpq, ptr %0, i32 0, i32 0
  call void @_ZN11mpq_managerILb0EE3delER3mpz(ptr noundef nonnull align 8 dereferenceable(728) %this1, ptr noundef nonnull align 8 dereferenceable(16) %m_num)
  %1 = load ptr, ptr %a.addr, align 8
  %m_den = getelementptr inbounds %class.mpq, ptr %1, i32 0, i32 1
  call void @_ZN11mpq_managerILb0EE3delER3mpz(ptr noundef nonnull align 8 dereferenceable(728) %this1, ptr noundef nonnull align 8 dereferenceable(16) %m_den)
  ret void
}

; Function Attrs: mustprogress nounwind uwtable
define linkonce_odr hidden noundef nonnull align 8 dereferenceable(8) ptr @_ZN6vectorIPN16bound_propagator5boundELb0EjEixEj(ptr noundef nonnull align 8 dereferenceable(8) %this, i32 noundef %idx) #5 comdat align 2 {
entry:
  %this.addr = alloca ptr, align 8
  %idx.addr = alloca i32, align 4
  store ptr %this, ptr %this.addr, align 8
  store i32 %idx, ptr %idx.addr, align 4
  %this1 = load ptr, ptr %this.addr, align 8
  %m_data = getelementptr inbounds %class.vector.6, ptr %this1, i32 0, i32 0
  %0 = load ptr, ptr %m_data, align 8
  %1 = load i32, ptr %idx.addr, align 4
  %idxprom = zext i32 %1 to i64
  %arrayidx = getelementptr inbounds ptr, ptr %0, i64 %idxprom
  ret ptr %arrayidx
}

; Function Attrs: mustprogress nounwind uwtable
define linkonce_odr hidden void @_ZN6vectorIN16bound_propagator10trail_infoELb0EjE8pop_backEv(ptr noundef nonnull align 8 dereferenceable(8) %this) #5 comdat align 2 {
entry:
  %this.addr = alloca ptr, align 8
  store ptr %this, ptr %this.addr, align 8
  %this1 = load ptr, ptr %this.addr, align 8
  %m_data = getelementptr inbounds %class.vector.9, ptr %this1, i32 0, i32 0
  %0 = load ptr, ptr %m_data, align 8
  %arrayidx = getelementptr inbounds i32, ptr %0, i64 -1
  %1 = load i32, ptr %arrayidx, align 4
  %dec = add i32 %1, -1
  store i32 %dec, ptr %arrayidx, align 4
  ret void
}

; Function Attrs: mustprogress nounwind uwtable
define linkonce_odr hidden noundef zeroext i1 @_ZNK16bound_propagator10trail_info8is_lowerEv(ptr noundef nonnull align 4 dereferenceable(4) %this) #5 comdat align 2 {
entry:
  %this.addr = alloca ptr, align 8
  store ptr %this, ptr %this.addr, align 8
  %this1 = load ptr, ptr %this.addr, align 8
  %m_x_lower = getelementptr inbounds %"class.bound_propagator::trail_info", ptr %this1, i32 0, i32 0
  %0 = load i32, ptr %m_x_lower, align 4
  %and = and i32 %0, 1
  %cmp = icmp ne i32 %and, 0
  ret i1 %cmp
}

; Function Attrs: mustprogress nounwind uwtable
define linkonce_odr hidden noundef i32 @_ZNK16bound_propagator10trail_info1xEv(ptr noundef nonnull align 4 dereferenceable(4) %this) #5 comdat align 2 {
entry:
  %this.addr = alloca ptr, align 8
  store ptr %this, ptr %this.addr, align 8
  %this1 = load ptr, ptr %this.addr, align 8
  %m_x_lower = getelementptr inbounds %"class.bound_propagator::trail_info", ptr %this1, i32 0, i32 0
  %0 = load i32, ptr %m_x_lower, align 4
  %shr = lshr i32 %0, 1
  ret i32 %shr
}

; Function Attrs: mustprogress uwtable
define linkonce_odr hidden noundef nonnull align 4 dereferenceable(4) ptr @_ZN6vectorIN16bound_propagator10trail_infoELb0EjE4backEv(ptr noundef nonnull align 8 dereferenceable(8) %this) #4 comdat align 2 {
entry:
  %this.addr = alloca ptr, align 8
  store ptr %this, ptr %this.addr, align 8
  %this1 = load ptr, ptr %this.addr, align 8
  %call = call noundef i32 @_ZNK6vectorIN16bound_propagator10trail_infoELb0EjE4sizeEv(ptr noundef nonnull align 8 dereferenceable(8) %this1)
  %sub = sub i32 %call, 1
  %call2 = call noundef nonnull align 4 dereferenceable(4) ptr @_ZN6vectorIN16bound_propagator10trail_infoELb0EjEixEj(ptr noundef nonnull align 8 dereferenceable(8) %this1, i32 noundef %sub)
  ret ptr %call2
}

; Function Attrs: mustprogress nounwind uwtable
define linkonce_odr hidden noundef i32 @_ZNK6vectorIN16bound_propagator10trail_infoELb0EjE4sizeEv(ptr noundef nonnull align 8 dereferenceable(8) %this) #5 comdat align 2 {
entry:
  %retval = alloca i32, align 4
  %this.addr = alloca ptr, align 8
  store ptr %this, ptr %this.addr, align 8
  %this1 = load ptr, ptr %this.addr, align 8
  %m_data = getelementptr inbounds %class.vector.9, ptr %this1, i32 0, i32 0
  %0 = load ptr, ptr %m_data, align 8
  %cmp = icmp eq ptr %0, null
  br i1 %cmp, label %if.then, label %if.end

if.then:                                          ; preds = %entry
  store i32 0, ptr %retval, align 4
  br label %return

if.end:                                           ; preds = %entry
  %m_data2 = getelementptr inbounds %class.vector.9, ptr %this1, i32 0, i32 0
  %1 = load ptr, ptr %m_data2, align 8
  %arrayidx = getelementptr inbounds i32, ptr %1, i64 -1
  %2 = load i32, ptr %arrayidx, align 4
  store i32 %2, ptr %retval, align 4
  br label %return

return:                                           ; preds = %if.end, %if.then
  %3 = load i32, ptr %retval, align 4
  ret i32 %3
}

; Function Attrs: mustprogress uwtable
define hidden void @_ZN16bound_propagator10undo_trailEj(ptr noundef nonnull align 8 dereferenceable(280) %this, i32 noundef %old_sz) #4 align 2 {
entry:
  %this.addr = alloca ptr, align 8
  %old_sz.addr = alloca i32, align 4
  %i = alloca i32, align 4
  %info = alloca ptr, align 8
  %x = alloca i32, align 4
  %is_lower = alloca i8, align 1
  %b = alloca ptr, align 8
  store ptr %this, ptr %this.addr, align 8
  store i32 %old_sz, ptr %old_sz.addr, align 4
  %this1 = load ptr, ptr %this.addr, align 8
  %m_trail = getelementptr inbounds %class.bound_propagator, ptr %this1, i32 0, i32 9
  %call = call noundef i32 @_ZNK6vectorIN16bound_propagator10trail_infoELb0EjE4sizeEv(ptr noundef nonnull align 8 dereferenceable(8) %m_trail)
  store i32 %call, ptr %i, align 4
  br label %while.cond

while.cond:                                       ; preds = %if.end, %entry
  %0 = load i32, ptr %i, align 4
  %1 = load i32, ptr %old_sz.addr, align 4
  %cmp = icmp ugt i32 %0, %1
  br i1 %cmp, label %while.body, label %while.end

while.body:                                       ; preds = %while.cond
  %2 = load i32, ptr %i, align 4
  %dec = add i32 %2, -1
  store i32 %dec, ptr %i, align 4
  %m_trail2 = getelementptr inbounds %class.bound_propagator, ptr %this1, i32 0, i32 9
  %call3 = call noundef nonnull align 4 dereferenceable(4) ptr @_ZN6vectorIN16bound_propagator10trail_infoELb0EjE4backEv(ptr noundef nonnull align 8 dereferenceable(8) %m_trail2)
  store ptr %call3, ptr %info, align 8
  %3 = load ptr, ptr %info, align 8
  %call4 = call noundef i32 @_ZNK16bound_propagator10trail_info1xEv(ptr noundef nonnull align 4 dereferenceable(4) %3)
  store i32 %call4, ptr %x, align 4
  %4 = load ptr, ptr %info, align 8
  %call5 = call noundef zeroext i1 @_ZNK16bound_propagator10trail_info8is_lowerEv(ptr noundef nonnull align 4 dereferenceable(4) %4)
  %frombool = zext i1 %call5 to i8
  store i8 %frombool, ptr %is_lower, align 1
  %m_trail6 = getelementptr inbounds %class.bound_propagator, ptr %this1, i32 0, i32 9
  call void @_ZN6vectorIN16bound_propagator10trail_infoELb0EjE8pop_backEv(ptr noundef nonnull align 8 dereferenceable(8) %m_trail6)
  %5 = load i8, ptr %is_lower, align 1
  %tobool = trunc i8 %5 to i1
  br i1 %tobool, label %if.then, label %if.else

if.then:                                          ; preds = %while.body
  %m_lowers = getelementptr inbounds %class.bound_propagator, ptr %this1, i32 0, i32 6
  %6 = load i32, ptr %x, align 4
  %call7 = call noundef nonnull align 8 dereferenceable(8) ptr @_ZN6vectorIPN16bound_propagator5boundELb0EjEixEj(ptr noundef nonnull align 8 dereferenceable(8) %m_lowers, i32 noundef %6)
  %7 = load ptr, ptr %call7, align 8
  store ptr %7, ptr %b, align 8
  %8 = load ptr, ptr %b, align 8
  %m_prev = getelementptr inbounds %"struct.bound_propagator::bound", ptr %8, i32 0, i32 5
  %9 = load ptr, ptr %m_prev, align 8
  %m_lowers8 = getelementptr inbounds %class.bound_propagator, ptr %this1, i32 0, i32 6
  %10 = load i32, ptr %x, align 4
  %call9 = call noundef nonnull align 8 dereferenceable(8) ptr @_ZN6vectorIPN16bound_propagator5boundELb0EjEixEj(ptr noundef nonnull align 8 dereferenceable(8) %m_lowers8, i32 noundef %10)
  store ptr %9, ptr %call9, align 8
  br label %if.end

if.else:                                          ; preds = %while.body
  %m_uppers = getelementptr inbounds %class.bound_propagator, ptr %this1, i32 0, i32 7
  %11 = load i32, ptr %x, align 4
  %call10 = call noundef nonnull align 8 dereferenceable(8) ptr @_ZN6vectorIPN16bound_propagator5boundELb0EjEixEj(ptr noundef nonnull align 8 dereferenceable(8) %m_uppers, i32 noundef %11)
  %12 = load ptr, ptr %call10, align 8
  store ptr %12, ptr %b, align 8
  %13 = load ptr, ptr %b, align 8
  %m_prev11 = getelementptr inbounds %"struct.bound_propagator::bound", ptr %13, i32 0, i32 5
  %14 = load ptr, ptr %m_prev11, align 8
  %m_uppers12 = getelementptr inbounds %class.bound_propagator, ptr %this1, i32 0, i32 7
  %15 = load i32, ptr %x, align 4
  %call13 = call noundef nonnull align 8 dereferenceable(8) ptr @_ZN6vectorIPN16bound_propagator5boundELb0EjEixEj(ptr noundef nonnull align 8 dereferenceable(8) %m_uppers12, i32 noundef %15)
  store ptr %14, ptr %call13, align 8
  br label %if.end

if.end:                                           ; preds = %if.else, %if.then
  %m = getelementptr inbounds %class.bound_propagator, ptr %this1, i32 0, i32 0
  %16 = load ptr, ptr %m, align 8
  %17 = load ptr, ptr %b, align 8
  %m_k = getelementptr inbounds %"struct.bound_propagator::bound", ptr %17, i32 0, i32 0
  call void @_ZN11mpq_managerILb0EE3delER3mpq(ptr noundef nonnull align 8 dereferenceable(728) %16, ptr noundef nonnull align 8 dereferenceable(32) %m_k)
  %m_allocator = getelementptr inbounds %class.bound_propagator, ptr %this1, i32 0, i32 1
  %18 = load ptr, ptr %m_allocator, align 8
  %19 = load ptr, ptr %b, align 8
  call void @_ZN22small_object_allocator10deallocateEmPv(ptr noundef nonnull align 8 dereferenceable(520) %18, i64 noundef 64, ptr noundef %19)
  br label %while.cond, !llvm.loop !6

while.end:                                        ; preds = %while.cond
  ret void
}