; Function Attrs: mustprogress uwtable
define hidden void @_ZN16bound_propagator10undo_trailEj(ptr nocapture noundef nonnull readonly align 8 dereferenceable(280) %this, i32 noundef %old_sz) local_unnamed_addr #3 align 2 {
entry:
  %m_trail = getelementptr inbounds i8, ptr %this, i64 128
  %0 = load ptr, ptr %m_trail, align 8
  %cmp.i = icmp eq ptr %0, null
  br i1 %cmp.i, label %while.end, label %_ZNK6vectorIN16bound_propagator10trail_infoELb0EjE4sizeEv.exit

_ZNK6vectorIN16bound_propagator10trail_infoELb0EjE4sizeEv.exit: ; preds = %entry
  %arrayidx.i = getelementptr inbounds i8, ptr %0, i64 -4
  %1 = load i32, ptr %arrayidx.i, align 4
  %cmp18 = icmp ugt i32 %1, %old_sz
  br i1 %cmp18, label %while.body.lr.ph, label %while.end

while.body.lr.ph:                                 ; preds = %_ZNK6vectorIN16bound_propagator10trail_infoELb0EjE4sizeEv.exit
  %m_allocator = getelementptr inbounds i8, ptr %this, i64 8
  br label %while.body

while.body:                                       ; preds = %while.body.lr.ph, %_ZN6vectorIN16bound_propagator10trail_infoELb0EjE4backEv.exit
  %i.019 = phi i32 [ %1, %while.body.lr.ph ], [ %dec, %_ZN6vectorIN16bound_propagator10trail_infoELb0EjE4backEv.exit ]
  %dec = add i32 %i.019, -1
  %2 = load ptr, ptr %m_trail, align 8
  %cmp.i.i = icmp eq ptr %2, null
  br i1 %cmp.i.i, label %while.body._ZN6vectorIN16bound_propagator10trail_infoELb0EjE4backEv.exit_crit_edge, label %if.end.i.i

while.body._ZN6vectorIN16bound_propagator10trail_infoELb0EjE4backEv.exit_crit_edge: ; preds = %while.body
  %.pre = load i32, ptr inttoptr (i64 -4 to ptr), align 4
  %.pre20 = add i32 %.pre, -1
  br label %_ZN6vectorIN16bound_propagator10trail_infoELb0EjE4backEv.exit

if.end.i.i:                                       ; preds = %while.body
  %arrayidx.i.i = getelementptr inbounds i8, ptr %2, i64 -4
  %3 = load i32, ptr %arrayidx.i.i, align 4
  %4 = add i32 %3, -1
  %5 = zext i32 %4 to i64
  br label %_ZN6vectorIN16bound_propagator10trail_infoELb0EjE4backEv.exit

_ZN6vectorIN16bound_propagator10trail_infoELb0EjE4backEv.exit: ; preds = %while.body._ZN6vectorIN16bound_propagator10trail_infoELb0EjE4backEv.exit_crit_edge, %if.end.i.i
  %dec.i.pre-phi = phi i32 [ %.pre20, %while.body._ZN6vectorIN16bound_propagator10trail_infoELb0EjE4backEv.exit_crit_edge ], [ %4, %if.end.i.i ]
  %retval.0.i.i = phi i64 [ 4294967295, %while.body._ZN6vectorIN16bound_propagator10trail_infoELb0EjE4backEv.exit_crit_edge ], [ %5, %if.end.i.i ]
  %arrayidx.i1.i = getelementptr inbounds %"class.bound_propagator::trail_info", ptr %2, i64 %retval.0.i.i
  %6 = load i32, ptr %arrayidx.i1.i, align 4
  %shr.i = lshr i32 %6, 1
  %and.i = and i32 %6, 1
  %cmp.i9.not = icmp eq i32 %and.i, 0
  %arrayidx.i10 = getelementptr inbounds i8, ptr %2, i64 -4
  store i32 %dec.i.pre-phi, ptr %arrayidx.i10, align 4
  %idxprom.i14 = zext nneg i32 %shr.i to i64
  %m_uppers.m_lowers.v = select i1 %cmp.i9.not, i64 112, i64 104
  %m_uppers.m_lowers = getelementptr inbounds i8, ptr %this, i64 %m_uppers.m_lowers.v
  %.pn = load ptr, ptr %m_uppers.m_lowers, align 8
  %arrayidx.i15.sink = getelementptr inbounds ptr, ptr %.pn, i64 %idxprom.i14
  %.sink = load ptr, ptr %arrayidx.i15.sink, align 8
  %m_prev11 = getelementptr inbounds i8, ptr %.sink, i64 56
  %7 = load ptr, ptr %m_prev11, align 8
  store ptr %7, ptr %arrayidx.i15.sink, align 8
  %8 = load ptr, ptr %this, align 8
  tail call void @_ZN11mpz_managerILb0EE3delEPS0_R3mpz(ptr noundef nonnull %8, ptr noundef nonnull align 8 dereferenceable(16) %.sink)
  %m_den.i = getelementptr inbounds i8, ptr %.sink, i64 16
  tail call void @_ZN11mpz_managerILb0EE3delEPS0_R3mpz(ptr noundef nonnull %8, ptr noundef nonnull align 8 dereferenceable(16) %m_den.i)
  %9 = load ptr, ptr %m_allocator, align 8
  tail call void @_ZN22small_object_allocator10deallocateEmPv(ptr noundef nonnull align 8 dereferenceable(520) %9, i64 noundef 64, ptr noundef nonnull %.sink)
  %cmp = icmp ugt i32 %dec, %old_sz
  br i1 %cmp, label %while.body, label %while.end, !llvm.loop !7

while.end:                                        ; preds = %_ZN6vectorIN16bound_propagator10trail_infoELb0EjE4backEv.exit, %entry, %_ZNK6vectorIN16bound_propagator10trail_infoELb0EjE4sizeEv.exit
  ret void
}